target datalayout = "e-m:e-p270:32:32-p271:32:32-p272:64:64-i64:64-i128:128-f80:128-n8:16:32:64-S128"
target triple = "x86_64-pc-linux-gnu"

%struct.ssl_st = type { i32, ptr, ptr, ptr, %struct.CRYPTO_REF_COUNT, ptr, %struct.crypto_ex_data_st }
%struct.CRYPTO_REF_COUNT = type { i32 }
%struct.crypto_ex_data_st = type { ptr, ptr }

@.str.52 = private unnamed_addr constant [7 x i8] c"SSLERR\00", align 1
@.str.53 = private unnamed_addr constant [5 x i8] c"TRNP\00", align 1
@.str.54 = private unnamed_addr constant [5 x i8] c"TWST\00", align 1
@.str.55 = private unnamed_addr constant [5 x i8] c"TWCS\00", align 1
@.str.56 = private unnamed_addr constant [5 x i8] c"TRCS\00", align 1
@.str.57 = private unnamed_addr constant [5 x i8] c"TRST\00", align 1
@.str.58 = private unnamed_addr constant [5 x i8] c"TWNP\00", align 1
@.str.59 = private unnamed_addr constant [6 x i8] c"PINIT\00", align 1
@.str.60 = private unnamed_addr constant [6 x i8] c"SSLOK\00", align 1
@.str.61 = private unnamed_addr constant [5 x i8] c"TWCH\00", align 1
@.str.62 = private unnamed_addr constant [5 x i8] c"TRSH\00", align 1
@.str.63 = private unnamed_addr constant [5 x i8] c"TRSC\00", align 1
@.str.64 = private unnamed_addr constant [6 x i8] c"TRSCC\00", align 1
@.str.65 = private unnamed_addr constant [6 x i8] c"TRSKE\00", align 1
@.str.66 = private unnamed_addr constant [5 x i8] c"TRCR\00", align 1
@.str.67 = private unnamed_addr constant [5 x i8] c"TRSD\00", align 1
@.str.68 = private unnamed_addr constant [5 x i8] c"TWCC\00", align 1
@.str.69 = private unnamed_addr constant [6 x i8] c"TWCCC\00", align 1
@.str.70 = private unnamed_addr constant [6 x i8] c"TWCKE\00", align 1
@.str.71 = private unnamed_addr constant [5 x i8] c"TWCV\00", align 1
@.str.72 = private unnamed_addr constant [6 x i8] c"TWCCS\00", align 1
@.str.73 = private unnamed_addr constant [6 x i8] c"TWFIN\00", align 1
@.str.74 = private unnamed_addr constant [6 x i8] c"TRCCS\00", align 1
@.str.75 = private unnamed_addr constant [6 x i8] c"TRFIN\00", align 1
@.str.76 = private unnamed_addr constant [5 x i8] c"TWHR\00", align 1
@.str.77 = private unnamed_addr constant [5 x i8] c"TRCH\00", align 1
@.str.78 = private unnamed_addr constant [5 x i8] c"TWSH\00", align 1
@.str.79 = private unnamed_addr constant [5 x i8] c"TWSC\00", align 1
@.str.80 = private unnamed_addr constant [6 x i8] c"TWSCC\00", align 1
@.str.81 = private unnamed_addr constant [6 x i8] c"TWSKE\00", align 1
@.str.82 = private unnamed_addr constant [5 x i8] c"TWCR\00", align 1
@.str.83 = private unnamed_addr constant [5 x i8] c"TWSD\00", align 1
@.str.84 = private unnamed_addr constant [5 x i8] c"TRCC\00", align 1
@.str.85 = private unnamed_addr constant [6 x i8] c"TRCCC\00", align 1
@.str.86 = private unnamed_addr constant [6 x i8] c"TRCKE\00", align 1
@.str.87 = private unnamed_addr constant [5 x i8] c"TRCV\00", align 1
@.str.88 = private unnamed_addr constant [6 x i8] c"DRCHV\00", align 1
@.str.89 = private unnamed_addr constant [6 x i8] c"DWCHV\00", align 1
@.str.90 = private unnamed_addr constant [5 x i8] c"TWEE\00", align 1
@.str.91 = private unnamed_addr constant [5 x i8] c"TREE\00", align 1
@.str.92 = private unnamed_addr constant [6 x i8] c"TRSCV\00", align 1
@.str.93 = private unnamed_addr constant [6 x i8] c"TWSCV\00", align 1
@.str.94 = private unnamed_addr constant [5 x i8] c"TRHR\00", align 1
@.str.95 = private unnamed_addr constant [6 x i8] c"TWSKU\00", align 1
@.str.96 = private unnamed_addr constant [6 x i8] c"TWCKU\00", align 1
@.str.97 = private unnamed_addr constant [6 x i8] c"TRCKU\00", align 1
@.str.98 = private unnamed_addr constant [6 x i8] c"TRSKU\00", align 1
@.str.99 = private unnamed_addr constant [4 x i8] c"TED\00", align 1
@.str.100 = private unnamed_addr constant [6 x i8] c"TPEDE\00", align 1
@.str.101 = private unnamed_addr constant [7 x i8] c"TWEOED\00", align 1
@.str.102 = private unnamed_addr constant [6 x i8] c"UNKWN\00", align 1

; Function Attrs: nounwind uwtable
define ptr @SSL_state_string(ptr noundef %0) #0 {
  %2 = alloca ptr, align 8
  %3 = alloca ptr, align 8
  %4 = alloca ptr, align 8
  %5 = alloca i32, align 4
  store ptr %0, ptr %3, align 8, !tbaa !3
  call void @llvm.lifetime.start.p0(i64 8, ptr %4) #3
  %6 = load ptr, ptr %3, align 8, !tbaa !3
  %7 = icmp eq ptr %6, null
  br i1 %7, label %8, label %9

8:                                                ; preds = %1
  br label %30

9:                                                ; preds = %1
  %10 = load ptr, ptr %3, align 8, !tbaa !3
  %11 = getelementptr inbounds nuw %struct.ssl_st, ptr %10, i32 0, i32 0
  %12 = load i32, ptr %11, align 8, !tbaa !8
  %13 = icmp eq i32 %12, 0
  br i1 %13, label %14, label %16

14:                                               ; preds = %9
  %15 = load ptr, ptr %3, align 8, !tbaa !3
  br label %28

16:                                               ; preds = %9
  %17 = load ptr, ptr %3, align 8, !tbaa !3
  %18 = getelementptr inbounds nuw %struct.ssl_st, ptr %17, i32 0, i32 0
  %19 = load i32, ptr %18, align 8, !tbaa !8
  %20 = and i32 %19, 128
  %21 = icmp ne i32 %20, 0
  br i1 %21, label %22, label %25

22:                                               ; preds = %16
  %23 = load ptr, ptr %3, align 8, !tbaa !3
  %24 = call ptr @ossl_quic_obj_get0_handshake_layer(ptr noundef %23)
  br label %26

25:                                               ; preds = %16
  br label %26

26:                                               ; preds = %25, %22
  %27 = phi ptr [ %24, %22 ], [ null, %25 ]
  br label %28

28:                                               ; preds = %26, %14
  %29 = phi ptr [ %15, %14 ], [ %27, %26 ]
  br label %30

30:                                               ; preds = %28, %8
  %31 = phi ptr [ null, %8 ], [ %29, %28 ]
  store ptr %31, ptr %4, align 8, !tbaa !17
  %32 = load ptr, ptr %4, align 8, !tbaa !17
  %33 = icmp eq ptr %32, null
  br i1 %33, label %38, label %34

34:                                               ; preds = %30
  %35 = load ptr, ptr %4, align 8, !tbaa !17
  %36 = call i32 @ossl_statem_in_error(ptr noundef %35)
  %37 = icmp ne i32 %36, 0
  br i1 %37, label %38, label %39

38:                                               ; preds = %34, %30
  store ptr @.str.52, ptr %2, align 8
  store i32 1, ptr %5, align 4
  br label %93

39:                                               ; preds = %34
  %40 = load ptr, ptr %3, align 8, !tbaa !3
  %41 = call i32 @SSL_get_state(ptr noundef %40)
  switch i32 %41, label %92 [
    i32 34, label %42
    i32 37, label %43
    i32 38, label %44
    i32 6, label %45
    i32 10, label %46
    i32 19, label %47
    i32 0, label %48
    i32 1, label %49
    i32 13, label %50
    i32 3, label %51
    i32 4, label %52
    i32 5, label %53
    i32 7, label %54
    i32 8, label %55
    i32 9, label %56
    i32 14, label %57
    i32 15, label %58
    i32 16, label %59
    i32 17, label %60
    i32 39, label %61
    i32 18, label %61
    i32 40, label %62
    i32 20, label %62
    i32 35, label %63
    i32 11, label %63
    i32 36, label %64
    i32 12, label %64
    i32 21, label %65
    i32 22, label %66
    i32 24, label %67
    i32 25, label %68
    i32 26, label %69
    i32 27, label %70
    i32 28, label %71
    i32 29, label %72
    i32 30, label %73
    i32 31, label %74
    i32 32, label %75
    i32 33, label %76
    i32 2, label %77
    i32 23, label %78
    i32 41, label %79
    i32 42, label %80
    i32 43, label %81
    i32 44, label %82
    i32 45, label %83
    i32 46, label %84
    i32 47, label %85
    i32 48, label %86
    i32 49, label %87
    i32 50, label %88
    i32 51, label %89
    i32 52, label %90
    i32 53, label %91
  ]

42:                                               ; preds = %39
  store ptr @.str.53, ptr %2, align 8
  store i32 1, ptr %5, align 4
  br label %93

43:                                               ; preds = %39
  store ptr @.str.54, ptr %2, align 8
  store i32 1, ptr %5, align 4
  br label %93

44:                                               ; preds = %39
  store ptr @.str.55, ptr %2, align 8
  store i32 1, ptr %5, align 4
  br label %93

45:                                               ; preds = %39
  store ptr @.str.56, ptr %2, align 8
  store i32 1, ptr %5, align 4
  br label %93

46:                                               ; preds = %39
  store ptr @.str.57, ptr %2, align 8
  store i32 1, ptr %5, align 4
  br label %93

47:                                               ; preds = %39
  store ptr @.str.58, ptr %2, align 8
  store i32 1, ptr %5, align 4
  br label %93

48:                                               ; preds = %39
  store ptr @.str.59, ptr %2, align 8
  store i32 1, ptr %5, align 4
  br label %93

49:                                               ; preds = %39
  store ptr @.str.60, ptr %2, align 8
  store i32 1, ptr %5, align 4
  br label %93

50:                                               ; preds = %39
  store ptr @.str.61, ptr %2, align 8
  store i32 1, ptr %5, align 4
  br label %93

51:                                               ; preds = %39
  store ptr @.str.62, ptr %2, align 8
  store i32 1, ptr %5, align 4
  br label %93

52:                                               ; preds = %39
  store ptr @.str.63, ptr %2, align 8
  store i32 1, ptr %5, align 4
  br label %93

53:                                               ; preds = %39
  store ptr @.str.64, ptr %2, align 8
  store i32 1, ptr %5, align 4
  br label %93

54:                                               ; preds = %39
  store ptr @.str.65, ptr %2, align 8
  store i32 1, ptr %5, align 4
  br label %93

55:                                               ; preds = %39
  store ptr @.str.66, ptr %2, align 8
  store i32 1, ptr %5, align 4
  br label %93

56:                                               ; preds = %39
  store ptr @.str.67, ptr %2, align 8
  store i32 1, ptr %5, align 4
  br label %93

57:                                               ; preds = %39
  store ptr @.str.68, ptr %2, align 8
  store i32 1, ptr %5, align 4
  br label %93

58:                                               ; preds = %39
  store ptr @.str.69, ptr %2, align 8
  store i32 1, ptr %5, align 4
  br label %93

59:                                               ; preds = %39
  store ptr @.str.70, ptr %2, align 8
  store i32 1, ptr %5, align 4
  br label %93

60:                                               ; preds = %39
  store ptr @.str.71, ptr %2, align 8
  store i32 1, ptr %5, align 4
  br label %93

61:                                               ; preds = %39, %39
  store ptr @.str.72, ptr %2, align 8
  store i32 1, ptr %5, align 4
  br label %93

62:                                               ; preds = %39, %39
  store ptr @.str.73, ptr %2, align 8
  store i32 1, ptr %5, align 4
  br label %93

63:                                               ; preds = %39, %39
  store ptr @.str.74, ptr %2, align 8
  store i32 1, ptr %5, align 4
  br label %93

64:                                               ; preds = %39, %39
  store ptr @.str.75, ptr %2, align 8
  store i32 1, ptr %5, align 4
  br label %93

65:                                               ; preds = %39
  store ptr @.str.76, ptr %2, align 8
  store i32 1, ptr %5, align 4
  br label %93

66:                                               ; preds = %39
  store ptr @.str.77, ptr %2, align 8
  store i32 1, ptr %5, align 4
  br label %93

67:                                               ; preds = %39
  store ptr @.str.78, ptr %2, align 8
  store i32 1, ptr %5, align 4
  br label %93

68:                                               ; preds = %39
  store ptr @.str.79, ptr %2, align 8
  store i32 1, ptr %5, align 4
  br label %93

69:                                               ; preds = %39
  store ptr @.str.80, ptr %2, align 8
  store i32 1, ptr %5, align 4
  br label %93

70:                                               ; preds = %39
  store ptr @.str.81, ptr %2, align 8
  store i32 1, ptr %5, align 4
  br label %93

71:                                               ; preds = %39
  store ptr @.str.82, ptr %2, align 8
  store i32 1, ptr %5, align 4
  br label %93

72:                                               ; preds = %39
  store ptr @.str.83, ptr %2, align 8
  store i32 1, ptr %5, align 4
  br label %93

73:                                               ; preds = %39
  store ptr @.str.84, ptr %2, align 8
  store i32 1, ptr %5, align 4
  br label %93

74:                                               ; preds = %39
  store ptr @.str.85, ptr %2, align 8
  store i32 1, ptr %5, align 4
  br label %93

75:                                               ; preds = %39
  store ptr @.str.86, ptr %2, align 8
  store i32 1, ptr %5, align 4
  br label %93

76:                                               ; preds = %39
  store ptr @.str.87, ptr %2, align 8
  store i32 1, ptr %5, align 4
  br label %93

77:                                               ; preds = %39
  store ptr @.str.88, ptr %2, align 8
  store i32 1, ptr %5, align 4
  br label %93

78:                                               ; preds = %39
  store ptr @.str.89, ptr %2, align 8
  store i32 1, ptr %5, align 4
  br label %93

79:                                               ; preds = %39
  store ptr @.str.90, ptr %2, align 8
  store i32 1, ptr %5, align 4
  br label %93

80:                                               ; preds = %39
  store ptr @.str.91, ptr %2, align 8
  store i32 1, ptr %5, align 4
  br label %93

81:                                               ; preds = %39
  store ptr @.str.92, ptr %2, align 8
  store i32 1, ptr %5, align 4
  br label %93

82:                                               ; preds = %39
  store ptr @.str.93, ptr %2, align 8
  store i32 1, ptr %5, align 4
  br label %93

83:                                               ; preds = %39
  store ptr @.str.94, ptr %2, align 8
  store i32 1, ptr %5, align 4
  br label %93

84:                                               ; preds = %39
  store ptr @.str.95, ptr %2, align 8
  store i32 1, ptr %5, align 4
  br label %93

85:                                               ; preds = %39
  store ptr @.str.96, ptr %2, align 8
  store i32 1, ptr %5, align 4
  br label %93

86:                                               ; preds = %39
  store ptr @.str.97, ptr %2, align 8
  store i32 1, ptr %5, align 4
  br label %93

87:                                               ; preds = %39
  store ptr @.str.98, ptr %2, align 8
  store i32 1, ptr %5, align 4
  br label %93

88:                                               ; preds = %39
  store ptr @.str.99, ptr %2, align 8
  store i32 1, ptr %5, align 4
  br label %93

89:                                               ; preds = %39
  store ptr @.str.100, ptr %2, align 8
  store i32 1, ptr %5, align 4
  br label %93

90:                                               ; preds = %39
  store ptr @.str.101, ptr %2, align 8
  store i32 1, ptr %5, align 4
  br label %93

91:                                               ; preds = %39
  store ptr @.str.101, ptr %2, align 8
  store i32 1, ptr %5, align 4
  br label %93

92:                                               ; preds = %39
  store ptr @.str.102, ptr %2, align 8
  store i32 1, ptr %5, align 4
  br label %93

93:                                               ; preds = %92, %91, %90, %89, %88, %87, %86, %85, %84, %83, %82, %81, %80, %79, %78, %77, %76, %75, %74, %73, %72, %71, %70, %69, %68, %67, %66, %65, %64, %63, %62, %61, %60, %59, %58, %57, %56, %55, %54, %53, %52, %51, %50, %49, %48, %47, %46, %45, %44, %43, %42, %38
  call void @llvm.lifetime.end.p0(i64 8, ptr %4) #3
  %94 = load ptr, ptr %2, align 8
  ret ptr %94
}